Certificate:
    Data:
        Version: 3 (0x2)
        Serial Number: 1 (0x1)
    Signature Algorithm: sha1WithRSAEncryption
        Issuer: C=US, ST=MD, L=Columbia, O=BBN, OU=bud, CN=cert.polycrypt.net/emailAddress=cert@polycrypt.net
        Validity
            Not Before: Dec  8 00:19:02 2013 GMT
            Not After : Dec  8 00:19:02 2014 GMT
        Subject: C=US, ST=MD, L=Columbia, O=BBN, OU=whac, CN=localhost/emailAddress=foo@bar.com
        Subject Public Key Info:
            Public Key Algorithm: rsaEncryption
                Public-Key: (2048 bit)
                Modulus:
                    00:c2:f8:5b:9d:3c:fe:12:00:76:76:0a:6f:cd:9d:
                    ac:2e:9d:d8:ff:bb:06:f7:9b:6c:de:16:18:62:d7:
                    c6:71:18:a4:21:70:70:d9:ae:23:5f:41:1e:11:16:
                    16:0e:87:12:92:75:06:99:8a:a9:db:a6:0d:5e:ed:
                    6e:40:89:6f:00:33:00:a7:69:55:57:60:fa:32:24:
                    e0:b1:c8:8c:fa:ec:39:5c:43:31:b8:35:ab:5a:50:
                    c5:15:e7:bf:8a:b9:2e:26:24:bb:39:7b:6c:99:71:
                    7e:da:3f:8b:66:fb:2c:74:aa:59:16:93:58:e1:18:
                    97:83:9d:8d:fe:5e:36:c6:ed:c6:5c:d1:77:c3:01:
                    cc:47:2e:60:23:4e:e8:ab:dc:50:0b:82:f7:a7:ad:
                    4d:94:c9:c4:5e:c0:89:c5:b8:e2:c1:59:51:ae:4b:
                    ab:bb:dd:c5:93:07:f0:24:85:9c:78:00:34:e1:db:
                    d9:8e:43:61:62:1a:b2:28:b6:3f:d4:87:4f:da:18:
                    6f:f9:f7:fb:f9:71:8c:42:63:da:b7:c8:5f:de:fa:
                    48:ef:6e:aa:d7:73:49:ff:99:d8:be:29:27:98:b2:
                    fc:5e:2f:22:e9:39:c9:3a:12:e0:bd:65:2d:f0:30:
                    71:86:e4:d4:31:29:39:83:21:e7:a9:ed:62:08:b8:
                    a0:87
                Exponent: 65537 (0x10001)
        X509v3 extensions:
            X509v3 Basic Constraints: 
                CA:FALSE
            Netscape Comment: 
                OpenSSL Generated Certificate
            X509v3 Subject Key Identifier: 
                EF:6E:39:2D:6C:EC:97:13:81:CD:8A:7F:A2:38:4D:A6:2A:7C:20:04
            X509v3 Authority Key Identifier: 
                keyid:13:03:6A:23:17:1B:16:10:E8:A7:C9:9A:4D:56:40:08:9C:0A:27:AB

    Signature Algorithm: sha1WithRSAEncryption
         0f:65:05:92:3d:02:80:84:3e:64:e3:e8:c6:9b:34:20:ec:ae:
         ca:85:78:d3:73:1b:2e:e4:ba:16:cb:ea:53:6c:b6:6c:78:02:
         34:0e:4a:bd:1a:cd:a0:00:21:7d:94:b9:d4:7f:b9:65:d4:fe:
         c9:48:26:a4:0c:33:d1:82:e0:07:5f:3e:9a:d8:fd:ba:67:98:
         a3:b6:f1:5f:3b:70:89:ba:dd:35:10:55:70:fb:f7:78:fe:79:
         0b:85:e9:a1:ff:5f:f5:4e:40:9c:9e:66:bd:8c:ea:7a:d2:4f:
         8d:03:8b:77:3d:4b:27:be:96:10:ad:9f:93:9e:1a:53:95:e5:
         e5:ae:9a:38:4c:90:8c:ed:fc:59:34:ac:d3:94:78:69:13:ce:
         1e:30:32:eb:80:39:40:fa:7c:f4:c2:2e:db:12:97:75:e3:90:
         11:03:5c:97:d7:13:91:cd:c3:fb:47:2d:f5:c9:3d:ed:16:e2:
         75:3d:db:df:9a:ff:21:7b:bd:6e:4f:d6:e9:7d:bb:d4:f0:c1:
         5a:9c:b9:03:e3:42:af:d4:c1:1c:50:31:d6:d5:b4:9b:d1:6b:
         8e:f6:1a:75:a3:01:94:40:99:ed:7e:da:06:b6:64:8b:43:3c:
         e5:d0:cf:ec:b0:eb:80:1c:ed:79:30:c7:92:d5:b9:26:e3:f3:
         4a:60:5d:11
-----BEGIN CERTIFICATE-----
MIID+jCCAuKgAwIBAgIBATANBgkqhkiG9w0BAQUFADCBiTELMAkGA1UEBhMCVVMx
CzAJBgNVBAgMAk1EMREwDwYDVQQHDAhDb2x1bWJpYTEMMAoGA1UECgwDQkJOMQww
CgYDVQQLDANidWQxGzAZBgNVBAMMEmNlcnQucG9seWNyeXB0Lm5ldDEhMB8GCSqG
SIb3DQEJARYSY2VydEBwb2x5Y3J5cHQubmV0MB4XDTEzMTIwODAwMTkwMloXDTE0
MTIwODAwMTkwMlowejELMAkGA1UEBhMCVVMxCzAJBgNVBAgMAk1EMREwDwYDVQQH
DAhDb2x1bWJpYTEMMAoGA1UECgwDQkJOMQ0wCwYDVQQLDAR3aGFjMRIwEAYDVQQD
DAlsb2NhbGhvc3QxGjAYBgkqhkiG9w0BCQEWC2Zvb0BiYXIuY29tMIIBIjANBgkq
hkiG9w0BAQEFAAOCAQ8AMIIBCgKCAQEAwvhbnTz+EgB2dgpvzZ2sLp3Y/7sG95ts
3hYYYtfGcRikIXBw2a4jX0EeERYWDocSknUGmYqp26YNXu1uQIlvADMAp2lVV2D6
MiTgsciM+uw5XEMxuDWrWlDFFee/irkuJiS7OXtsmXF+2j+LZvssdKpZFpNY4RiX
g52N/l42xu3GXNF3wwHMRy5gI07oq9xQC4L3p61NlMnEXsCJxbjiwVlRrkuru93F
kwfwJIWceAA04dvZjkNhYhqyKLY/1IdP2hhv+ff7+XGMQmPat8hf3vpI726q13NJ
/5nYviknmLL8Xi8i6TnJOhLgvWUt8DBxhuTUMSk5gyHnqe1iCLighwIDAQABo3sw
eTAJBgNVHRMEAjAAMCwGCWCGSAGG+EIBDQQfFh1PcGVuU1NMIEdlbmVyYXRlZCBD
ZXJ0aWZpY2F0ZTAdBgNVHQ4EFgQU7245LWzslxOBzYp/ojhNpip8IAQwHwYDVR0j
BBgwFoAUEwNqIxcbFhDop8maTVZACJwKJ6swDQYJKoZIhvcNAQEFBQADggEBAA9l
BZI9AoCEPmTj6MabNCDsrsqFeNNzGy7kuhbL6lNstmx4AjQOSr0azaAAIX2UudR/
uWXU/slIJqQMM9GC4AdfPprY/bpnmKO28V87cIm63TUQVXD793j+eQuF6aH/X/VO
QJyeZr2M6nrST40Di3c9Sye+lhCtn5OeGlOV5eWumjhMkIzt/Fk0rNOUeGkTzh4w
MuuAOUD6fPTCLtsSl3XjkBEDXJfXE5HNw/tHLfXJPe0W4nU929+a/yF7vW5P1ul9
u9TwwVqcuQPjQq/UwRxQMdbVtJvRa472GnWjAZRAme1+2ga2ZItDPOXQz+yw64Ac
7Xkwx5LVuSbj80pgXRE=
-----END CERTIFICATE-----
